target datalayout = "e-m:e-p270:32:32-p271:32:32-p272:64:64-i64:64-i128:128-f80:128-n8:16:32:64-S128"
target triple = "x86_64-pc-linux-gnu"

%union.LWLockPadded = type { %struct.LWLock, [112 x i8] }
%struct.LWLock = type { i16, %struct.pg_atomic_uint32, %struct.proclist_head }
%struct.pg_atomic_uint32 = type { i32 }
%struct.proclist_head = type { i32, i32 }
%struct.ReplicationState = type { i16, i64, i64, i32, %struct.ConditionVariable, %struct.LWLock }
%struct.ConditionVariable = type { i8, %struct.proclist_head }

@.str.1 = private unnamed_addr constant [9 x i8] c"origin.c\00", align 1
@max_replication_slots = external global i32, align 4
@replication_states = internal global ptr null, align 8
@MainLWLockArray = external global ptr, align 8
@.str.21 = private unnamed_addr constant [59 x i8] c"replication origin with ID %d is already active for PID %d\00", align 1
@.str.22 = private unnamed_addr constant [77 x i8] c"could not find free replication state slot for replication origin with ID %d\00", align 1
@.str.23 = private unnamed_addr constant [48 x i8] c"Increase \22max_replication_slots\22 and try again.\00", align 1
@replorigin_session_setup.registered_cleanup = internal global i8 0, align 1
@session_replication_state = internal global ptr null, align 8
@.str.24 = private unnamed_addr constant [58 x i8] c"cannot setup replication origin when one is already setup\00", align 1
@__func__.replorigin_session_setup = private unnamed_addr constant [25 x i8] c"replorigin_session_setup\00", align 1
@MyProcPid = external global i32, align 4
@.str.25 = private unnamed_addr constant [98 x i8] c"could not find replication state slot for replication origin with OID %u which was acquired by %d\00", align 1

; Function Attrs: nounwind uwtable
define dso_local void @replorigin_session_setup(i16 noundef zeroext %0, i32 noundef %1) #0 {
  %3 = alloca i16, align 2
  %4 = alloca i32, align 4
  %5 = alloca i32, align 4
  %6 = alloca i32, align 4
  %7 = alloca ptr, align 8
  %8 = alloca i32, align 4
  store i16 %0, ptr %3, align 2
  store i32 %1, ptr %4, align 4
  call void @llvm.lifetime.start.p0(i64 4, ptr %5) #9
  call void @llvm.lifetime.start.p0(i64 4, ptr %6) #9
  store i32 -1, ptr %6, align 4
  %9 = load i8, ptr @replorigin_session_setup.registered_cleanup, align 1, !range !4, !noundef !5
  %10 = trunc i8 %9 to i1
  br i1 %10, label %12, label %11

11:                                               ; preds = %2
  call void @on_shmem_exit(ptr noundef @ReplicationOriginExitCleanup, i64 noundef 0)
  store i8 1, ptr @replorigin_session_setup.registered_cleanup, align 1
  br label %12

12:                                               ; preds = %11, %2
  %13 = load ptr, ptr @session_replication_state, align 8
  %14 = icmp ne ptr %13, null
  br i1 %14, label %15, label %27

15:                                               ; preds = %12
  br label %16

16:                                               ; preds = %15
  br i1 true, label %17, label %19

17:                                               ; preds = %16
  %18 = call zeroext i1 @errstart_cold(i32 noundef 21, ptr noundef null) #10
  br i1 %18, label %21, label %24

19:                                               ; preds = %16
  %20 = call zeroext i1 @errstart(i32 noundef 21, ptr noundef null)
  br i1 %20, label %21, label %24

21:                                               ; preds = %19, %17
  %22 = call i32 @errcode(i32 noundef 325)
  %23 = call i32 (ptr, ...) @errmsg(ptr noundef @.str.24)
  call void @errfinish(ptr noundef @.str.1, i32 noundef 1118, ptr noundef @__func__.replorigin_session_setup)
  br label %24

24:                                               ; preds = %21, %19, %17
  unreachable

25:                                               ; No predecessors!
  br label %26

26:                                               ; preds = %25
  br label %27

27:                                               ; preds = %26, %12
  %28 = load ptr, ptr @MainLWLockArray, align 8
  %29 = getelementptr inbounds %union.LWLockPadded, ptr %28, i64 40
  %30 = call zeroext i1 @LWLockAcquire(ptr noundef %29, i32 noundef 0)
  store i32 0, ptr %5, align 4
  br label %31

31:                                               ; preds = %91, %27
  %32 = load i32, ptr %5, align 4
  %33 = load i32, ptr @max_replication_slots, align 4
  %34 = icmp slt i32 %32, %33
  br i1 %34, label %35, label %94

35:                                               ; preds = %31
  call void @llvm.lifetime.start.p0(i64 8, ptr %7) #9
  %36 = load ptr, ptr @replication_states, align 8
  %37 = load i32, ptr %5, align 4
  %38 = sext i32 %37 to i64
  %39 = getelementptr inbounds %struct.ReplicationState, ptr %36, i64 %38
  store ptr %39, ptr %7, align 8
  %40 = load ptr, ptr %7, align 8
  %41 = getelementptr inbounds nuw %struct.ReplicationState, ptr %40, i32 0, i32 0
  %42 = load i16, ptr %41, align 8
  %43 = zext i16 %42 to i32
  %44 = icmp eq i32 %43, 0
  br i1 %44, label %45, label %50

45:                                               ; preds = %35
  %46 = load i32, ptr %6, align 4
  %47 = icmp eq i32 %46, -1
  br i1 %47, label %48, label %50

48:                                               ; preds = %45
  %49 = load i32, ptr %5, align 4
  store i32 %49, ptr %6, align 4
  store i32 6, ptr %8, align 4
  br label %89

50:                                               ; preds = %45, %35
  %51 = load ptr, ptr %7, align 8
  %52 = getelementptr inbounds nuw %struct.ReplicationState, ptr %51, i32 0, i32 0
  %53 = load i16, ptr %52, align 8
  %54 = zext i16 %53 to i32
  %55 = load i16, ptr %3, align 2
  %56 = zext i16 %55 to i32
  %57 = icmp ne i32 %54, %56
  br i1 %57, label %58, label %59

58:                                               ; preds = %50
  store i32 6, ptr %8, align 4
  br label %89

59:                                               ; preds = %50
  %60 = load ptr, ptr %7, align 8
  %61 = getelementptr inbounds nuw %struct.ReplicationState, ptr %60, i32 0, i32 3
  %62 = load i32, ptr %61, align 8
  %63 = icmp ne i32 %62, 0
  br i1 %63, label %64, label %86

64:                                               ; preds = %59
  %65 = load i32, ptr %4, align 4
  %66 = icmp eq i32 %65, 0
  br i1 %66, label %67, label %86

67:                                               ; preds = %64
  br label %68

68:                                               ; preds = %67
  br i1 true, label %69, label %71

69:                                               ; preds = %68
  %70 = call zeroext i1 @errstart_cold(i32 noundef 21, ptr noundef null) #10
  br i1 %70, label %73, label %83

71:                                               ; preds = %68
  %72 = call zeroext i1 @errstart(i32 noundef 21, ptr noundef null)
  br i1 %72, label %73, label %83

73:                                               ; preds = %71, %69
  %74 = call i32 @errcode(i32 noundef 100663621)
  %75 = load ptr, ptr %7, align 8
  %76 = getelementptr inbounds nuw %struct.ReplicationState, ptr %75, i32 0, i32 0
  %77 = load i16, ptr %76, align 8
  %78 = zext i16 %77 to i32
  %79 = load ptr, ptr %7, align 8
  %80 = getelementptr inbounds nuw %struct.ReplicationState, ptr %79, i32 0, i32 3
  %81 = load i32, ptr %80, align 8
  %82 = call i32 (ptr, ...) @errmsg(ptr noundef @.str.21, i32 noundef %78, i32 noundef %81)
  call void @errfinish(ptr noundef @.str.1, i32 noundef 1148, ptr noundef @__func__.replorigin_session_setup)
  br label %83

83:                                               ; preds = %73, %71, %69
  unreachable

84:                                               ; No predecessors!
  br label %85

85:                                               ; preds = %84
  br label %86

86:                                               ; preds = %85, %64, %59
  br label %87

87:                                               ; preds = %86
  %88 = load ptr, ptr %7, align 8
  store ptr %88, ptr @session_replication_state, align 8
  store i32 4, ptr %8, align 4
  br label %89

89:                                               ; preds = %87, %58, %48
  call void @llvm.lifetime.end.p0(i64 8, ptr %7) #9
  %90 = load i32, ptr %8, align 4
  switch i32 %90, label %160 [
    i32 6, label %91
    i32 4, label %94
  ]

91:                                               ; preds = %89
  %92 = load i32, ptr %5, align 4
  %93 = add i32 %92, 1
  store i32 %93, ptr %5, align 4
  br label %31, !llvm.loop !15

94:                                               ; preds = %89, %31
  %95 = load ptr, ptr @session_replication_state, align 8
  %96 = icmp eq ptr %95, null
  br i1 %96, label %97, label %115

97:                                               ; preds = %94
  %98 = load i32, ptr %6, align 4
  %99 = icmp eq i32 %98, -1
  br i1 %99, label %100, label %115

100:                                              ; preds = %97
  br label %101

101:                                              ; preds = %100
  br i1 true, label %102, label %104

102:                                              ; preds = %101
  %103 = call zeroext i1 @errstart_cold(i32 noundef 21, ptr noundef null) #10
  br i1 %103, label %106, label %112

104:                                              ; preds = %101
  %105 = call zeroext i1 @errstart(i32 noundef 21, ptr noundef null)
  br i1 %105, label %106, label %112

106:                                              ; preds = %104, %102
  %107 = call i32 @errcode(i32 noundef 16581)
  %108 = load i16, ptr %3, align 2
  %109 = zext i16 %108 to i32
  %110 = call i32 (ptr, ...) @errmsg(ptr noundef @.str.22, i32 noundef %109)
  %111 = call i32 (ptr, ...) @errhint(ptr noundef @.str.23)
  call void @errfinish(ptr noundef @.str.1, i32 noundef 1162, ptr noundef @__func__.replorigin_session_setup)
  br label %112

112:                                              ; preds = %106, %104, %102
  unreachable

113:                                              ; No predecessors!
  br label %114

114:                                              ; preds = %113
  br label %127

115:                                              ; preds = %97, %94
  %116 = load ptr, ptr @session_replication_state, align 8
  %117 = icmp eq ptr %116, null
  br i1 %117, label %118, label %126

118:                                              ; preds = %115
  %119 = load ptr, ptr @replication_states, align 8
  %120 = load i32, ptr %6, align 4
  %121 = sext i32 %120 to i64
  %122 = getelementptr inbounds %struct.ReplicationState, ptr %119, i64 %121
  store ptr %122, ptr @session_replication_state, align 8
  %123 = load i16, ptr %3, align 2
  %124 = load ptr, ptr @session_replication_state, align 8
  %125 = getelementptr inbounds nuw %struct.ReplicationState, ptr %124, i32 0, i32 0
  store i16 %123, ptr %125, align 8
  br label %126

126:                                              ; preds = %118, %115
  br label %127

127:                                              ; preds = %126, %114
  %128 = load i32, ptr %4, align 4
  %129 = icmp eq i32 %128, 0
  br i1 %129, label %130, label %134

130:                                              ; preds = %127
  %131 = load i32, ptr @MyProcPid, align 4
  %132 = load ptr, ptr @session_replication_state, align 8
  %133 = getelementptr inbounds nuw %struct.ReplicationState, ptr %132, i32 0, i32 3
  store i32 %131, ptr %133, align 8
  br label %155

134:                                              ; preds = %127
  %135 = load ptr, ptr @session_replication_state, align 8
  %136 = getelementptr inbounds nuw %struct.ReplicationState, ptr %135, i32 0, i32 3
  %137 = load i32, ptr %136, align 8
  %138 = load i32, ptr %4, align 4
  %139 = icmp ne i32 %137, %138
  br i1 %139, label %140, label %154

140:                                              ; preds = %134
  br label %141

141:                                              ; preds = %140
  br i1 true, label %142, label %144

142:                                              ; preds = %141
  %143 = call zeroext i1 @errstart_cold(i32 noundef 21, ptr noundef null) #10
  br i1 %143, label %146, label %151

144:                                              ; preds = %141
  %145 = call zeroext i1 @errstart(i32 noundef 21, ptr noundef null)
  br i1 %145, label %146, label %151

146:                                              ; preds = %144, %142
  %147 = load i16, ptr %3, align 2
  %148 = zext i16 %147 to i32
  %149 = load i32, ptr %4, align 4
  %150 = call i32 (ptr, ...) @errmsg_internal(ptr noundef @.str.25, i32 noundef %148, i32 noundef %149)
  call void @errfinish(ptr noundef @.str.1, i32 noundef 1179, ptr noundef @__func__.replorigin_session_setup)
  br label %151

151:                                              ; preds = %146, %144, %142
  unreachable

152:                                              ; No predecessors!
  br label %153

153:                                              ; preds = %152
  br label %154

154:                                              ; preds = %153, %134
  br label %155

155:                                              ; preds = %154, %130
  %156 = load ptr, ptr @MainLWLockArray, align 8
  %157 = getelementptr inbounds %union.LWLockPadded, ptr %156, i64 40
  call void @LWLockRelease(ptr noundef %157)
  %158 = load ptr, ptr @session_replication_state, align 8
  %159 = getelementptr inbounds nuw %struct.ReplicationState, ptr %158, i32 0, i32 4
  call void @ConditionVariableBroadcast(ptr noundef %159)
  call void @llvm.lifetime.end.p0(i64 4, ptr %6) #9
  call void @llvm.lifetime.end.p0(i64 4, ptr %5) #9
  ret void

160:                                              ; preds = %89
  unreachable
}