; Function Attrs: nounwind uwtable
define dso_local void @replorigin_session_setup(i16 noundef zeroext %0, i32 noundef %1) local_unnamed_addr #0 {
  %.b29 = load i1, ptr @replorigin_session_setup.registered_cleanup, align 1
  br i1 %.b29, label %4, label %3

3:                                                ; preds = %2
  tail call void @on_shmem_exit(ptr noundef nonnull @ReplicationOriginExitCleanup, i64 noundef 0) #10
  store i1 true, ptr @replorigin_session_setup.registered_cleanup, align 1
  br label %4

4:                                                ; preds = %3, %2
  %5 = load ptr, ptr @session_replication_state, align 8
  %.not = icmp eq ptr %5, null
  br i1 %.not, label %10, label %6

6:                                                ; preds = %4
  %7 = tail call zeroext i1 @errstart_cold(i32 noundef 21, ptr noundef null) #11
  tail call void @llvm.assume(i1 %7)
  %8 = tail call i32 @errcode(i32 noundef 325) #10
  %9 = tail call i32 (ptr, ...) @errmsg(ptr noundef nonnull @.str.24) #10
  tail call void @errfinish(ptr noundef nonnull @.str.1, i32 noundef 1118, ptr noundef nonnull @__func__.replorigin_session_setup) #10
  unreachable

10:                                               ; preds = %4
  %11 = load ptr, ptr @MainLWLockArray, align 8
  %12 = getelementptr inbounds nuw i8, ptr %11, i64 5120
  %13 = tail call zeroext i1 @LWLockAcquire(ptr noundef nonnull %12, i32 noundef 0) #10
  %14 = load i32, ptr @max_replication_slots, align 4
  %15 = icmp sgt i32 %14, 0
  br i1 %15, label %.lr.ph, label %._crit_edge

.lr.ph:                                           ; preds = %10
  %16 = load ptr, ptr @replication_states, align 8
  %wide.trip.count = zext nneg i32 %14 to i64
  br label %17

17:                                               ; preds = %.lr.ph, %36
  %indvars.iv = phi i64 [ 0, %.lr.ph ], [ %indvars.iv.next, %36 ]
  %.02743 = phi i32 [ -1, %.lr.ph ], [ %.2.ph, %36 ]
  %18 = getelementptr inbounds nuw %struct.ReplicationState, ptr %16, i64 %indvars.iv
  %19 = load i16, ptr %18, align 8
  %20 = icmp eq i16 %19, 0
  %21 = icmp eq i32 %.02743, -1
  %or.cond = select i1 %20, i1 %21, i1 false
  %22 = trunc nuw nsw i64 %indvars.iv to i32
  br i1 %or.cond, label %36, label %23

23:                                               ; preds = %17
  %.not30 = icmp eq i16 %19, %0
  br i1 %.not30, label %24, label %36

24:                                               ; preds = %23
  %25 = getelementptr inbounds nuw i8, ptr %18, i64 24
  %26 = load i32, ptr %25, align 8
  %27 = icmp ne i32 %26, 0
  %28 = icmp eq i32 %1, 0
  %or.cond3 = and i1 %28, %27
  br i1 %or.cond3, label %29, label %.thread37

29:                                               ; preds = %24
  %30 = tail call zeroext i1 @errstart_cold(i32 noundef 21, ptr noundef null) #11
  tail call void @llvm.assume(i1 %30)
  %31 = tail call i32 @errcode(i32 noundef 100663621) #10
  %32 = load i16, ptr %18, align 8
  %33 = zext i16 %32 to i32
  %34 = load i32, ptr %25, align 8
  %35 = tail call i32 (ptr, ...) @errmsg(ptr noundef nonnull @.str.21, i32 noundef %33, i32 noundef %34) #10
  tail call void @errfinish(ptr noundef nonnull @.str.1, i32 noundef 1148, ptr noundef nonnull @__func__.replorigin_session_setup) #10
  unreachable

.thread37:                                        ; preds = %24
  store ptr %18, ptr @session_replication_state, align 8
  br label %50

36:                                               ; preds = %17, %23
  %.2.ph = phi i32 [ %.02743, %23 ], [ %22, %17 ]
  %indvars.iv.next = add nuw nsw i64 %indvars.iv, 1
  %exitcond.not = icmp eq i64 %indvars.iv.next, %wide.trip.count
  br i1 %exitcond.not, label %._crit_edge, label %17, !llvm.loop !15

._crit_edge:                                      ; preds = %36, %10
  %.027.lcssa = phi i32 [ -1, %10 ], [ %.2.ph, %36 ]
  %.pr = load ptr, ptr @session_replication_state, align 8
  %37 = icmp eq ptr %.pr, null
  %38 = icmp eq i32 %.027.lcssa, -1
  %or.cond5 = select i1 %37, i1 %38, i1 false
  br i1 %or.cond5, label %39, label %45

39:                                               ; preds = %._crit_edge
  %40 = tail call zeroext i1 @errstart_cold(i32 noundef 21, ptr noundef null) #11
  tail call void @llvm.assume(i1 %40)
  %41 = tail call i32 @errcode(i32 noundef 16581) #10
  %42 = zext i16 %0 to i32
  %43 = tail call i32 (ptr, ...) @errmsg(ptr noundef nonnull @.str.22, i32 noundef %42) #10
  %44 = tail call i32 (ptr, ...) @errhint(ptr noundef nonnull @.str.23) #10
  tail call void @errfinish(ptr noundef nonnull @.str.1, i32 noundef 1162, ptr noundef nonnull @__func__.replorigin_session_setup) #10
  unreachable

45:                                               ; preds = %._crit_edge
  br i1 %37, label %46, label %50

46:                                               ; preds = %45
  %47 = load ptr, ptr @replication_states, align 8
  %48 = sext i32 %.027.lcssa to i64
  %49 = getelementptr inbounds %struct.ReplicationState, ptr %47, i64 %48
  store ptr %49, ptr @session_replication_state, align 8
  store i16 %0, ptr %49, align 8
  br label %50

50:                                               ; preds = %.thread37, %45, %46
  %51 = phi ptr [ %18, %.thread37 ], [ %.pr, %45 ], [ %49, %46 ]
  %52 = icmp eq i32 %1, 0
  br i1 %52, label %53, label %56

53:                                               ; preds = %50
  %54 = load i32, ptr @MyProcPid, align 4
  %55 = getelementptr inbounds nuw i8, ptr %51, i64 24
  store i32 %54, ptr %55, align 8
  br label %63

56:                                               ; preds = %50
  %57 = getelementptr inbounds nuw i8, ptr %51, i64 24
  %58 = load i32, ptr %57, align 8
  %.not31 = icmp eq i32 %58, %1
  br i1 %.not31, label %63, label %59

59:                                               ; preds = %56
  %60 = tail call zeroext i1 @errstart_cold(i32 noundef 21, ptr noundef null) #11
  tail call void @llvm.assume(i1 %60)
  %61 = zext i16 %0 to i32
  %62 = tail call i32 (ptr, ...) @errmsg_internal(ptr noundef nonnull @.str.25, i32 noundef %61, i32 noundef %1) #10
  tail call void @errfinish(ptr noundef nonnull @.str.1, i32 noundef 1179, ptr noundef nonnull @__func__.replorigin_session_setup) #10
  unreachable

63:                                               ; preds = %56, %53
  %64 = load ptr, ptr @MainLWLockArray, align 8
  %65 = getelementptr inbounds nuw i8, ptr %64, i64 5120
  tail call void @LWLockRelease(ptr noundef nonnull %65) #10
  %66 = load ptr, ptr @session_replication_state, align 8
  %67 = getelementptr inbounds nuw i8, ptr %66, i64 28
  tail call void @ConditionVariableBroadcast(ptr noundef nonnull %67) #10
  ret void
}